; Function Attrs: nounwind uwtable
define internal void @__cxx_global_array_dtor(ptr readnone captures(none) %0) #4 section ".text.startup" personality ptr @__gxx_personality_v0 {
  br label %2

2:                                                ; preds = %_ZN7patternD2Ev.exit, %1
  %3 = phi ptr [ getelementptr inbounds nuw (i8, ptr @_ZN12_GLOBAL__N_112testPatternsE, i64 720), %1 ], [ %4, %_ZN7patternD2Ev.exit ]
  %4 = getelementptr inbounds i8, ptr %3, i64 -80
  %5 = load ptr, ptr %4, align 8
  %6 = getelementptr inbounds i8, ptr %3, i64 -64
  %7 = icmp eq ptr %5, %6
  br i1 %7, label %_ZNKSt7__cxx1112basic_stringIcSt11char_traitsIcESaIcEE11_M_is_localEv.exit.thread.i.i.i, label %_ZNKSt7__cxx1112basic_stringIcSt11char_traitsIcESaIcEE11_M_is_localEv.exit.i.i.i

_ZNKSt7__cxx1112basic_stringIcSt11char_traitsIcESaIcEE11_M_is_localEv.exit.thread.i.i.i: ; preds = %2
  %8 = getelementptr inbounds i8, ptr %3, i64 -72
  %9 = load i64, ptr %8, align 8
  %10 = icmp ult i64 %9, 16
  tail call void @llvm.assume(i1 %10)
  br label %_ZN7patternD2Ev.exit

_ZNKSt7__cxx1112basic_stringIcSt11char_traitsIcESaIcEE11_M_is_localEv.exit.i.i.i: ; preds = %2
  tail call void @_ZdlPv(ptr noundef %5) #29
  br label %_ZN7patternD2Ev.exit

_ZN7patternD2Ev.exit:                             ; preds = %_ZNKSt7__cxx1112basic_stringIcSt11char_traitsIcESaIcEE11_M_is_localEv.exit.thread.i.i.i, %_ZNKSt7__cxx1112basic_stringIcSt11char_traitsIcESaIcEE11_M_is_localEv.exit.i.i.i
  %11 = icmp eq ptr %4, @_ZN12_GLOBAL__N_112testPatternsE
  br i1 %11, label %12, label %2

12:                                               ; preds = %_ZN7patternD2Ev.exit
  ret void
}